; Function Attrs: mustprogress nounwind willreturn uwtable
define void @Sim_UtilInfoFree(ptr noundef captures(none) %0) local_unnamed_addr #4 {
  %2 = getelementptr inbounds nuw i8, ptr %0, i64 8
  %3 = load ptr, ptr %2, align 8, !tbaa !9
  %4 = load ptr, ptr %3, align 8, !tbaa !10
  %.not = icmp eq ptr %4, null
  br i1 %.not, label %.thread, label %5

5:                                                ; preds = %1
  tail call void @free(ptr noundef nonnull %4) #18
  %6 = load ptr, ptr %2, align 8, !tbaa !9
  store ptr null, ptr %6, align 8, !tbaa !10
  %.pr = load ptr, ptr %2, align 8, !tbaa !9
  %.not.i = icmp eq ptr %.pr, null
  br i1 %.not.i, label %Vec_PtrFree.exit, label %.thread

.thread:                                          ; preds = %1, %5
  %7 = phi ptr [ %.pr, %5 ], [ %3, %1 ]
  tail call void @free(ptr noundef nonnull %7) #18
  br label %Vec_PtrFree.exit

Vec_PtrFree.exit:                                 ; preds = %5, %.thread
  tail call void @free(ptr noundef nonnull %0) #18
  ret void
}